; Function Attrs: nounwind uwtable
define dso_local range(i32 -901, 1) i32 @nghttp2_bufs_addb_hold(ptr noundef captures(none) %0, i8 noundef zeroext %1) local_unnamed_addr #1 {
  %3 = getelementptr inbounds nuw i8, ptr %0, i64 8
  %4 = load ptr, ptr %3, align 8, !tbaa !20
  %5 = getelementptr inbounds nuw i8, ptr %4, i64 16
  %6 = load ptr, ptr %5, align 8, !tbaa !13
  %7 = getelementptr inbounds nuw i8, ptr %4, i64 32
  %8 = load ptr, ptr %7, align 8, !tbaa !11
  %.not.i = icmp eq ptr %6, %8
  br i1 %.not.i, label %bufs_ensure_addb.exit, label %bufs_ensure_addb.exit.thread

bufs_ensure_addb.exit:                            ; preds = %2
  %9 = tail call fastcc i32 @bufs_alloc_chain(ptr noundef nonnull %0)
  %.not = icmp eq i32 %9, 0
  br i1 %.not, label %bufs_ensure_addb.exit.bufs_ensure_addb.exit.thread_crit_edge, label %11

bufs_ensure_addb.exit.bufs_ensure_addb.exit.thread_crit_edge: ; preds = %bufs_ensure_addb.exit
  %.pre = load ptr, ptr %3, align 8, !tbaa !20
  %.phi.trans.insert = getelementptr inbounds nuw i8, ptr %.pre, i64 32
  %.pre8 = load ptr, ptr %.phi.trans.insert, align 8, !tbaa !23
  br label %bufs_ensure_addb.exit.thread

bufs_ensure_addb.exit.thread:                     ; preds = %bufs_ensure_addb.exit.bufs_ensure_addb.exit.thread_crit_edge, %2
  %10 = phi ptr [ %.pre8, %bufs_ensure_addb.exit.bufs_ensure_addb.exit.thread_crit_edge ], [ %8, %2 ]
  store i8 %1, ptr %10, align 1, !tbaa !39
  br label %11

11:                                               ; preds = %bufs_ensure_addb.exit, %bufs_ensure_addb.exit.thread
  %.0 = phi i32 [ 0, %bufs_ensure_addb.exit.thread ], [ %9, %bufs_ensure_addb.exit ]
  ret i32 %.0
}